target datalayout = "e-m:e-p270:32:32-p271:32:32-p272:64:64-i64:64-i128:128-f80:128-n8:16:32:64-S128"
target triple = "x86_64-pc-linux-gnu"

%struct.lua_TValue = type { %union.Value, [1 x i32], i32 }
%union.Value = type { ptr }
%struct.lua_State = type { i8, i8, i8, i8, i8, i8, i8, ptr, ptr, ptr, ptr, ptr, ptr, ptr, ptr, i32, i32, i16, i16, i32, ptr, ptr, ptr, ptr, ptr }
%struct.GCheader = type { i8, i8, i8 }
%struct.global_State = type { %struct.stringtable, ptr, ptr, i8, i8, ptr, ptr, ptr, i64, i64, i32, i32, i32, [40 x ptr], [40 x ptr], ptr, ptr, ptr, [256 x i64], ptr, %struct.UpVal, [11 x ptr], [11 x ptr], [21 x ptr], %struct.lua_TValue, %struct.lua_TValue, i32, ptr, i64, [4 x i64], %struct.lua_Callbacks, %struct.lua_ExecutionCallbacks, [128 x ptr], [128 x ptr], [128 x ptr], %struct.GCStats }
%struct.stringtable = type { ptr, i32, i32 }
%struct.UpVal = type { i8, i8, i8, i8, ptr, %union.anon.3 }
%union.anon.3 = type { %struct.anon.4 }
%struct.anon.4 = type { ptr, ptr, ptr }
%struct.lua_Callbacks = type { ptr, ptr, ptr, ptr, ptr, ptr, ptr, ptr, ptr, ptr }
%struct.lua_ExecutionCallbacks = type { ptr, ptr, ptr, ptr, ptr, ptr, ptr }
%struct.GCStats = type { [32 x i32], i32, i32, i64, i64, i64, double, double, double }

; Function Attrs: mustprogress uwtable
define dso_local noundef ptr @_Z13lua_newthreadP9lua_State(ptr noundef %0) #0 {
  %2 = alloca ptr, align 8
  %3 = alloca ptr, align 8
  %4 = alloca ptr, align 8
  %5 = alloca ptr, align 8
  store ptr %0, ptr %2, align 8, !tbaa !4
  %6 = load ptr, ptr %2, align 8, !tbaa !4
  %7 = getelementptr inbounds nuw %struct.lua_State, ptr %6, i32 0, i32 9
  %8 = load ptr, ptr %7, align 8, !tbaa !33
  %9 = getelementptr inbounds nuw %struct.global_State, ptr %8, i32 0, i32 9
  %10 = load i64, ptr %9, align 8, !tbaa !34
  %11 = load ptr, ptr %2, align 8, !tbaa !4
  %12 = getelementptr inbounds nuw %struct.lua_State, ptr %11, i32 0, i32 9
  %13 = load ptr, ptr %12, align 8, !tbaa !33
  %14 = getelementptr inbounds nuw %struct.global_State, ptr %13, i32 0, i32 8
  %15 = load i64, ptr %14, align 8, !tbaa !48
  %16 = icmp uge i64 %10, %15
  br i1 %16, label %17, label %20

17:                                               ; preds = %1
  %18 = load ptr, ptr %2, align 8, !tbaa !4
  %19 = call noundef i64 @_Z9luaC_stepP9lua_Stateb(ptr noundef %18, i1 noundef zeroext true)
  br label %21

20:                                               ; preds = %1
  br label %21

21:                                               ; preds = %20, %17
  %22 = load ptr, ptr %2, align 8, !tbaa !4
  %23 = getelementptr inbounds %struct.lua_State, ptr %22, i64 0
  %24 = getelementptr inbounds nuw %struct.GCheader, ptr %23, i32 0, i32 1
  %25 = load i8, ptr %24, align 1, !tbaa !25
  %26 = zext i8 %25 to i32
  %27 = and i32 %26, 4
  %28 = icmp ne i32 %27, 0
  br i1 %28, label %29, label %35

29:                                               ; preds = %21
  %30 = load ptr, ptr %2, align 8, !tbaa !4
  %31 = load ptr, ptr %2, align 8, !tbaa !4
  %32 = getelementptr inbounds %struct.lua_State, ptr %31, i64 0
  %33 = load ptr, ptr %2, align 8, !tbaa !4
  %34 = getelementptr inbounds nuw %struct.lua_State, ptr %33, i32 0, i32 22
  call void @_Z16luaC_barrierbackP9lua_StateP8GCObjectPS2_(ptr noundef %30, ptr noundef %32, ptr noundef %34)
  br label %35

35:                                               ; preds = %29, %21
  call void @llvm.lifetime.start.p0(i64 8, ptr %3) #11
  %36 = load ptr, ptr %2, align 8, !tbaa !4
  %37 = call noundef ptr @_Z14luaE_newthreadP9lua_State(ptr noundef %36)
  store ptr %37, ptr %3, align 8, !tbaa !4
  call void @llvm.lifetime.start.p0(i64 8, ptr %4) #11
  %38 = load ptr, ptr %2, align 8, !tbaa !4
  %39 = getelementptr inbounds nuw %struct.lua_State, ptr %38, i32 0, i32 7
  %40 = load ptr, ptr %39, align 8, !tbaa !23
  store ptr %40, ptr %4, align 8, !tbaa !11
  %41 = load ptr, ptr %3, align 8, !tbaa !4
  %42 = load ptr, ptr %4, align 8, !tbaa !11
  %43 = getelementptr inbounds nuw %struct.lua_TValue, ptr %42, i32 0, i32 0
  store ptr %41, ptr %43, align 8, !tbaa !25
  %44 = load ptr, ptr %4, align 8, !tbaa !11
  %45 = getelementptr inbounds nuw %struct.lua_TValue, ptr %44, i32 0, i32 2
  store i32 9, ptr %45, align 4, !tbaa !49
  call void @llvm.lifetime.end.p0(i64 8, ptr %4) #11
  %46 = load ptr, ptr %2, align 8, !tbaa !4
  %47 = getelementptr inbounds nuw %struct.lua_State, ptr %46, i32 0, i32 7
  %48 = load ptr, ptr %47, align 8, !tbaa !23
  %49 = getelementptr inbounds nuw %struct.lua_TValue, ptr %48, i32 1
  store ptr %49, ptr %47, align 8, !tbaa !23
  call void @llvm.lifetime.start.p0(i64 8, ptr %5) #11
  %50 = load ptr, ptr %2, align 8, !tbaa !4
  %51 = getelementptr inbounds nuw %struct.lua_State, ptr %50, i32 0, i32 9
  %52 = load ptr, ptr %51, align 8, !tbaa !33
  store ptr %52, ptr %5, align 8, !tbaa !50
  %53 = load ptr, ptr %5, align 8, !tbaa !50
  %54 = getelementptr inbounds nuw %struct.global_State, ptr %53, i32 0, i32 30
  %55 = getelementptr inbounds nuw %struct.lua_Callbacks, ptr %54, i32 0, i32 3
  %56 = load ptr, ptr %55, align 8, !tbaa !51
  %57 = icmp ne ptr %56, null
  br i1 %57, label %58, label %65

58:                                               ; preds = %35
  %59 = load ptr, ptr %5, align 8, !tbaa !50
  %60 = getelementptr inbounds nuw %struct.global_State, ptr %59, i32 0, i32 30
  %61 = getelementptr inbounds nuw %struct.lua_Callbacks, ptr %60, i32 0, i32 3
  %62 = load ptr, ptr %61, align 8, !tbaa !51
  %63 = load ptr, ptr %2, align 8, !tbaa !4
  %64 = load ptr, ptr %3, align 8, !tbaa !4
  call void %62(ptr noundef %63, ptr noundef %64)
  br label %65

65:                                               ; preds = %58, %35
  %66 = load ptr, ptr %3, align 8, !tbaa !4
  call void @llvm.lifetime.end.p0(i64 8, ptr %5) #11
  call void @llvm.lifetime.end.p0(i64 8, ptr %3) #11
  ret ptr %66
}