; Function Attrs: mustprogress uwtable
define dso_local noundef ptr @_Z13lua_newthreadP9lua_State(ptr noundef %0) local_unnamed_addr #3 {
  %2 = getelementptr inbounds nuw i8, ptr %0, i64 24
  %3 = load ptr, ptr %2, align 8, !tbaa !30
  %4 = getelementptr inbounds nuw i8, ptr %3, i64 72
  %5 = load i64, ptr %4, align 8, !tbaa !31
  %6 = getelementptr inbounds nuw i8, ptr %3, i64 64
  %7 = load i64, ptr %6, align 8, !tbaa !46
  %.not = icmp ult i64 %5, %7
  br i1 %.not, label %10, label %8

8:                                                ; preds = %1
  %9 = tail call noundef i64 @_Z9luaC_stepP9lua_Stateb(ptr noundef nonnull %0, i1 noundef zeroext true)
  br label %10

10:                                               ; preds = %1, %8
  %11 = getelementptr inbounds nuw i8, ptr %0, i64 1
  %12 = load i8, ptr %11, align 1, !tbaa !21
  %13 = and i8 %12, 4
  %.not19 = icmp eq i8 %13, 0
  br i1 %.not19, label %16, label %14

14:                                               ; preds = %10
  %15 = getelementptr inbounds nuw i8, ptr %0, i64 104
  tail call void @_Z16luaC_barrierbackP9lua_StateP8GCObjectPS2_(ptr noundef nonnull %0, ptr noundef nonnull %0, ptr noundef nonnull %15)
  br label %16

16:                                               ; preds = %14, %10
  %17 = tail call noundef ptr @_Z14luaE_newthreadP9lua_State(ptr noundef nonnull %0)
  %18 = getelementptr inbounds nuw i8, ptr %0, i64 8
  %19 = load ptr, ptr %18, align 8, !tbaa !19
  store ptr %17, ptr %19, align 8, !tbaa !21
  %20 = getelementptr inbounds nuw i8, ptr %19, i64 12
  store i32 9, ptr %20, align 4, !tbaa !47
  %21 = load ptr, ptr %18, align 8, !tbaa !19
  %22 = getelementptr inbounds nuw i8, ptr %21, i64 16
  store ptr %22, ptr %18, align 8, !tbaa !19
  %23 = load ptr, ptr %2, align 8, !tbaa !30
  %24 = getelementptr inbounds nuw i8, ptr %23, i64 3312
  %25 = load ptr, ptr %24, align 8, !tbaa !48
  %.not20 = icmp eq ptr %25, null
  br i1 %.not20, label %27, label %26

26:                                               ; preds = %16
  tail call void %25(ptr noundef nonnull %0, ptr noundef %17)
  br label %27

27:                                               ; preds = %26, %16
  ret ptr %17
}